; Function Attrs: mustprogress nofree norecurse nosync nounwind willreturn memory(argmem: read) uwtable
define hidden { ptr, i64 } @_ZNK5clang7targets13ARMTargetInfo13getCPUProfileEv(ptr nocapture noundef nonnull readonly align 8 dereferenceable(624) %0) local_unnamed_addr #5 align 2 {
  %2 = getelementptr inbounds nuw i8, ptr %0, i64 604
  %3 = load i32, ptr %2, align 4
  %switch.tableidx = add i32 %3, -1
  %4 = icmp ult i32 %switch.tableidx, 3
  br i1 %4, label %switch.lookup, label %6

switch.lookup:                                    ; preds = %1
  %5 = zext nneg i32 %switch.tableidx to i64
  %switch.gep = getelementptr inbounds [3 x ptr], ptr @switch.table._ZNK5clang7targets13ARMTargetInfo13getCPUProfileEv, i64 0, i64 %5
  %switch.load = load ptr, ptr %switch.gep, align 8
  br label %6

6:                                                ; preds = %1, %switch.lookup
  %.sroa.5.0 = phi i64 [ 1, %switch.lookup ], [ 0, %1 ]
  %.sroa.0.0 = phi ptr [ %switch.load, %switch.lookup ], [ @.str.4, %1 ]
  %.fca.0.insert = insertvalue { ptr, i64 } poison, ptr %.sroa.0.0, 0
  %.fca.1.insert = insertvalue { ptr, i64 } %.fca.0.insert, i64 %.sroa.5.0, 1
  ret { ptr, i64 } %.fca.1.insert
}